target datalayout = "e-m:e-p270:32:32-p271:32:32-p272:64:64-i64:64-i128:128-f80:128-n8:16:32:64-S128"
target triple = "x86_64-pc-linux-gnu"

%"class.Json::Value" = type { %"union.Json::Value::ValueHolder", %struct.anon, %"class.Json::Value::Comments", i64, i64 }
%"union.Json::Value::ValueHolder" = type { i64 }
%struct.anon = type { i16, [2 x i8] }
%"class.Json::Value::Comments" = type { %"class.std::unique_ptr" }
%"class.std::unique_ptr" = type { %"struct.std::__uniq_ptr_data" }
%"struct.std::__uniq_ptr_data" = type { %"class.std::__uniq_ptr_impl" }
%"class.std::__uniq_ptr_impl" = type { %"class.std::tuple" }
%"class.std::tuple" = type { %"struct.std::_Tuple_impl" }
%"struct.std::_Tuple_impl" = type { %"struct.std::_Head_base.1" }
%"struct.std::_Head_base.1" = type { ptr }
%"class.std::__cxx11::basic_string" = type { %"struct.std::__cxx11::basic_string<char>::_Alloc_hider", i64, %union.anon.2 }
%"struct.std::__cxx11::basic_string<char>::_Alloc_hider" = type { ptr }
%union.anon.2 = type { i64, [8 x i8] }
%"class.std::__cxx11::basic_ostringstream" = type { %"class.std::basic_ostream.base", %"class.std::__cxx11::basic_stringbuf", %"class.std::basic_ios" }
%"class.std::basic_ostream.base" = type { ptr }
%"class.std::__cxx11::basic_stringbuf" = type { %"class.std::basic_streambuf", i32, %"class.std::__cxx11::basic_string" }
%"class.std::basic_streambuf" = type { ptr, ptr, ptr, ptr, ptr, ptr, ptr, %"class.std::locale" }
%"class.std::locale" = type { ptr }
%"class.std::basic_ios" = type { %"class.std::ios_base", ptr, i8, i8, ptr, ptr, ptr, ptr }
%"class.std::ios_base" = type { ptr, i64, i64, i32, i32, i32, ptr, %"struct.std::ios_base::_Words", [8 x %"struct.std::ios_base::_Words"], i32, ptr, %"class.std::locale" }
%"struct.std::ios_base::_Words" = type { ptr, i64 }

@.str.21 = private unnamed_addr constant [31 x i8] c"LargestInt out of UInt64 range\00", align 1
@.str.22 = private unnamed_addr constant [27 x i8] c"double out of UInt64 range\00", align 1
@.str.23 = private unnamed_addr constant [36 x i8] c"Value is not convertible to UInt64.\00", align 1

; Function Attrs: mustprogress nounwind uwtable
define internal noundef double @_ZN4JsonL15integerToDoubleEm(i64 noundef %0) #5 {
  %2 = alloca i64, align 8
  store i64 %0, ptr %2, align 8
  %3 = load i64, ptr %2, align 8
  %4 = udiv i64 %3, 2
  %5 = sitofp i64 %4 to double
  %6 = load i64, ptr %2, align 8
  %7 = and i64 %6, 1
  %8 = sitofp i64 %7 to double
  %9 = call double @llvm.fmuladd.f64(double %5, double 2.000000e+00, double %8)
  ret double %9
}

; Function Attrs: mustprogress nounwind uwtable
define internal noundef double @_ZN4JsonL15integerToDoubleIiEEdT_(i32 noundef %0) #5 {
  %2 = alloca i32, align 4
  store i32 %0, ptr %2, align 4
  %3 = load i32, ptr %2, align 4
  %4 = sitofp i32 %3 to double
  ret double %4
}

; Function Attrs: mustprogress nounwind uwtable
define internal noundef zeroext i1 @_ZN4JsonL10IsIntegralEd(double noundef %0) #5 {
  %2 = alloca double, align 8
  %3 = alloca double, align 8
  store double %0, ptr %2, align 8
  %4 = load double, ptr %2, align 8
  %5 = call double @modf(double noundef %4, ptr noundef %3) #3
  %6 = fcmp oeq double %5, 0.000000e+00
  ret i1 %6
}

; Function Attrs: mustprogress nounwind uwtable
define internal noundef zeroext i1 @_ZN4JsonL7InRangeIimEEbdT_T0_(double noundef %0, i32 noundef %1, i64 noundef %2) #5 {
  %4 = alloca double, align 8
  %5 = alloca i32, align 4
  %6 = alloca i64, align 8
  store double %0, ptr %4, align 8
  store i32 %1, ptr %5, align 4
  store i64 %2, ptr %6, align 8
  %7 = load double, ptr %4, align 8
  %8 = load i32, ptr %5, align 4
  %9 = call noundef double @_ZN4JsonL15integerToDoubleIiEEdT_(i32 noundef %8)
  %10 = fcmp oge double %7, %9
  br i1 %10, label %11, label %16

11:                                               ; preds = %3
  %12 = load double, ptr %4, align 8
  %13 = load i64, ptr %6, align 8
  %14 = call noundef double @_ZN4JsonL15integerToDoubleEm(i64 noundef %13)
  %15 = fcmp ole double %12, %14
  br label %16

16:                                               ; preds = %11, %3
  %17 = phi i1 [ false, %3 ], [ %15, %11 ]
  ret i1 %17
}

; Function Attrs: mustprogress uwtable
define dso_local noundef zeroext i1 @_ZNK4Json5Value8isUInt64Ev(ptr noundef nonnull align 8 dereferenceable(40) %0) #4 align 2 {
  %2 = alloca i1, align 1
  %3 = alloca ptr, align 8
  store ptr %0, ptr %3, align 8
  %4 = load ptr, ptr %3, align 8
  %5 = call noundef i32 @_ZNK4Json5Value4typeEv(ptr noundef nonnull align 8 dereferenceable(40) %4)
  switch i32 %5, label %25 [
    i32 1, label %6
    i32 2, label %10
    i32 3, label %11
  ]

6:                                                ; preds = %1
  %7 = getelementptr inbounds %"class.Json::Value", ptr %4, i32 0, i32 0
  %8 = load i64, ptr %7, align 8
  %9 = icmp sge i64 %8, 0
  store i1 %9, ptr %2, align 1
  br label %27

10:                                               ; preds = %1
  store i1 true, ptr %2, align 1
  br label %27

11:                                               ; preds = %1
  %12 = getelementptr inbounds %"class.Json::Value", ptr %4, i32 0, i32 0
  %13 = load double, ptr %12, align 8
  %14 = fcmp oge double %13, 0.000000e+00
  br i1 %14, label %15, label %23

15:                                               ; preds = %11
  %16 = getelementptr inbounds %"class.Json::Value", ptr %4, i32 0, i32 0
  %17 = load double, ptr %16, align 8
  %18 = fcmp olt double %17, 0x43F0000000000000
  br i1 %18, label %19, label %23

19:                                               ; preds = %15
  %20 = getelementptr inbounds %"class.Json::Value", ptr %4, i32 0, i32 0
  %21 = load double, ptr %20, align 8
  %22 = call noundef zeroext i1 @_ZN4JsonL10IsIntegralEd(double noundef %21)
  br label %23

23:                                               ; preds = %19, %15, %11
  %24 = phi i1 [ false, %15 ], [ false, %11 ], [ %22, %19 ]
  store i1 %24, ptr %2, align 1
  br label %27

25:                                               ; preds = %1
  br label %26

26:                                               ; preds = %25
  store i1 false, ptr %2, align 1
  br label %27

27:                                               ; preds = %26, %23, %10, %6
  %28 = load i1, ptr %2, align 1
  ret i1 %28
}

; Function Attrs: mustprogress nounwind uwtable
define dso_local noundef i32 @_ZNK4Json5Value4typeEv(ptr noundef nonnull align 8 dereferenceable(40) %0) #5 align 2 {
  %2 = alloca ptr, align 8
  store ptr %0, ptr %2, align 8
  %3 = load ptr, ptr %2, align 8
  %4 = getelementptr inbounds %"class.Json::Value", ptr %3, i32 0, i32 1
  %5 = load i16, ptr %4, align 8
  %6 = and i16 %5, 255
  %7 = zext i16 %6 to i32
  ret i32 %7
}

; Function Attrs: mustprogress uwtable
define dso_local noundef i64 @_ZNK4Json5Value8asUInt64Ev(ptr noundef nonnull align 8 dereferenceable(40) %0) #4 align 2 personality ptr @__gxx_personality_v0 {
  %2 = alloca i64, align 8
  %3 = alloca ptr, align 8
  %4 = alloca %"class.std::__cxx11::basic_ostringstream", align 8
  %5 = alloca ptr, align 8
  %6 = alloca i32, align 4
  %7 = alloca %"class.std::__cxx11::basic_string", align 8
  %8 = alloca %"class.std::__cxx11::basic_ostringstream", align 8
  %9 = alloca %"class.std::__cxx11::basic_string", align 8
  %10 = alloca %"class.std::__cxx11::basic_ostringstream", align 8
  %11 = alloca %"class.std::__cxx11::basic_string", align 8
  store ptr %0, ptr %3, align 8
  %12 = load ptr, ptr %3, align 8
  %13 = call noundef i32 @_ZNK4Json5Value4typeEv(ptr noundef nonnull align 8 dereferenceable(40) %12)
  switch i32 %13, label %73 [
    i32 1, label %14
    i32 2, label %37
    i32 3, label %40
    i32 0, label %66
    i32 5, label %67
  ]

14:                                               ; preds = %1
  br label %15

15:                                               ; preds = %14
  %16 = call noundef zeroext i1 @_ZNK4Json5Value8isUInt64Ev(ptr noundef nonnull align 8 dereferenceable(40) %12)
  br i1 %16, label %33, label %17

17:                                               ; preds = %15
  br label %18

18:                                               ; preds = %17
  call void @_ZNSt7__cxx1119basic_ostringstreamIcSt11char_traitsIcESaIcEEC1Ev(ptr noundef nonnull align 8 dereferenceable(112) %4)
  %19 = invoke noundef nonnull align 8 dereferenceable(8) ptr @_ZStlsISt11char_traitsIcEERSt13basic_ostreamIcT_ES5_PKc(ptr noundef nonnull align 8 dereferenceable(8) %4, ptr noundef @.str.21)
          to label %20 unwind label %23

20:                                               ; preds = %18
  invoke void @_ZNKSt7__cxx1119basic_ostringstreamIcSt11char_traitsIcESaIcEE3strEv(ptr dead_on_unwind writable sret(%"class.std::__cxx11::basic_string") align 8 %7, ptr noundef nonnull align 8 dereferenceable(112) %4)
          to label %21 unwind label %23

21:                                               ; preds = %20
  invoke void @_ZN4Json15throwLogicErrorERKNSt7__cxx1112basic_stringIcSt11char_traitsIcESaIcEEE(ptr noundef nonnull align 8 dereferenceable(32) %7) #18
          to label %22 unwind label %27

22:                                               ; preds = %21
  unreachable

23:                                               ; preds = %20, %18
  %24 = landingpad { ptr, i32 }
          cleanup
  %25 = extractvalue { ptr, i32 } %24, 0
  store ptr %25, ptr %5, align 8
  %26 = extractvalue { ptr, i32 } %24, 1
  store i32 %26, ptr %6, align 4
  br label %31

27:                                               ; preds = %21
  %28 = landingpad { ptr, i32 }
          cleanup
  %29 = extractvalue { ptr, i32 } %28, 0
  store ptr %29, ptr %5, align 8
  %30 = extractvalue { ptr, i32 } %28, 1
  store i32 %30, ptr %6, align 4
  call void @_ZNSt7__cxx1112basic_stringIcSt11char_traitsIcESaIcEED1Ev(ptr noundef nonnull align 8 dereferenceable(32) %7) #3
  br label %31

31:                                               ; preds = %27, %23
  call void @_ZNSt7__cxx1119basic_ostringstreamIcSt11char_traitsIcESaIcEED1Ev(ptr noundef nonnull align 8 dereferenceable(112) %4) #3
  br label %92

32:                                               ; No predecessors!
  br label %33

33:                                               ; preds = %32, %15
  br label %34

34:                                               ; preds = %33
  %35 = getelementptr inbounds %"class.Json::Value", ptr %12, i32 0, i32 0
  %36 = load i64, ptr %35, align 8
  store i64 %36, ptr %2, align 8
  br label %90

37:                                               ; preds = %1
  %38 = getelementptr inbounds %"class.Json::Value", ptr %12, i32 0, i32 0
  %39 = load i64, ptr %38, align 8
  store i64 %39, ptr %2, align 8
  br label %90

40:                                               ; preds = %1
  br label %41

41:                                               ; preds = %40
  %42 = getelementptr inbounds %"class.Json::Value", ptr %12, i32 0, i32 0
  %43 = load double, ptr %42, align 8
  %44 = call noundef zeroext i1 @_ZN4JsonL7InRangeIimEEbdT_T0_(double noundef %43, i32 noundef 0, i64 noundef -1)
  br i1 %44, label %61, label %45

45:                                               ; preds = %41
  br label %46

46:                                               ; preds = %45
  call void @_ZNSt7__cxx1119basic_ostringstreamIcSt11char_traitsIcESaIcEEC1Ev(ptr noundef nonnull align 8 dereferenceable(112) %8)
  %47 = invoke noundef nonnull align 8 dereferenceable(8) ptr @_ZStlsISt11char_traitsIcEERSt13basic_ostreamIcT_ES5_PKc(ptr noundef nonnull align 8 dereferenceable(8) %8, ptr noundef @.str.22)
          to label %48 unwind label %51

48:                                               ; preds = %46
  invoke void @_ZNKSt7__cxx1119basic_ostringstreamIcSt11char_traitsIcESaIcEE3strEv(ptr dead_on_unwind writable sret(%"class.std::__cxx11::basic_string") align 8 %9, ptr noundef nonnull align 8 dereferenceable(112) %8)
          to label %49 unwind label %51

49:                                               ; preds = %48
  invoke void @_ZN4Json15throwLogicErrorERKNSt7__cxx1112basic_stringIcSt11char_traitsIcESaIcEEE(ptr noundef nonnull align 8 dereferenceable(32) %9) #18
          to label %50 unwind label %55

50:                                               ; preds = %49
  unreachable

51:                                               ; preds = %48, %46
  %52 = landingpad { ptr, i32 }
          cleanup
  %53 = extractvalue { ptr, i32 } %52, 0
  store ptr %53, ptr %5, align 8
  %54 = extractvalue { ptr, i32 } %52, 1
  store i32 %54, ptr %6, align 4
  br label %59

55:                                               ; preds = %49
  %56 = landingpad { ptr, i32 }
          cleanup
  %57 = extractvalue { ptr, i32 } %56, 0
  store ptr %57, ptr %5, align 8
  %58 = extractvalue { ptr, i32 } %56, 1
  store i32 %58, ptr %6, align 4
  call void @_ZNSt7__cxx1112basic_stringIcSt11char_traitsIcESaIcEED1Ev(ptr noundef nonnull align 8 dereferenceable(32) %9) #3
  br label %59

59:                                               ; preds = %55, %51
  call void @_ZNSt7__cxx1119basic_ostringstreamIcSt11char_traitsIcESaIcEED1Ev(ptr noundef nonnull align 8 dereferenceable(112) %8) #3
  br label %92

60:                                               ; No predecessors!
  br label %61

61:                                               ; preds = %60, %41
  br label %62

62:                                               ; preds = %61
  %63 = getelementptr inbounds %"class.Json::Value", ptr %12, i32 0, i32 0
  %64 = load double, ptr %63, align 8
  %65 = fptoui double %64 to i64
  store i64 %65, ptr %2, align 8
  br label %90

66:                                               ; preds = %1
  store i64 0, ptr %2, align 8
  br label %90

67:                                               ; preds = %1
  %68 = getelementptr inbounds %"class.Json::Value", ptr %12, i32 0, i32 0
  %69 = load i8, ptr %68, align 8
  %70 = trunc i8 %69 to i1
  %71 = select i1 %70, i32 1, i32 0
  %72 = sext i32 %71 to i64
  store i64 %72, ptr %2, align 8
  br label %90

73:                                               ; preds = %1
  br label %74

74:                                               ; preds = %73
  br label %75

75:                                               ; preds = %74
  call void @_ZNSt7__cxx1119basic_ostringstreamIcSt11char_traitsIcESaIcEEC1Ev(ptr noundef nonnull align 8 dereferenceable(112) %10)
  %76 = invoke noundef nonnull align 8 dereferenceable(8) ptr @_ZStlsISt11char_traitsIcEERSt13basic_ostreamIcT_ES5_PKc(ptr noundef nonnull align 8 dereferenceable(8) %10, ptr noundef @.str.23)
          to label %77 unwind label %80

77:                                               ; preds = %75
  invoke void @_ZNKSt7__cxx1119basic_ostringstreamIcSt11char_traitsIcESaIcEE3strEv(ptr dead_on_unwind writable sret(%"class.std::__cxx11::basic_string") align 8 %11, ptr noundef nonnull align 8 dereferenceable(112) %10)
          to label %78 unwind label %80

78:                                               ; preds = %77
  invoke void @_ZN4Json15throwLogicErrorERKNSt7__cxx1112basic_stringIcSt11char_traitsIcESaIcEEE(ptr noundef nonnull align 8 dereferenceable(32) %11) #18
          to label %79 unwind label %84

79:                                               ; preds = %78
  unreachable

80:                                               ; preds = %77, %75
  %81 = landingpad { ptr, i32 }
          cleanup
  %82 = extractvalue { ptr, i32 } %81, 0
  store ptr %82, ptr %5, align 8
  %83 = extractvalue { ptr, i32 } %81, 1
  store i32 %83, ptr %6, align 4
  br label %88

84:                                               ; preds = %78
  %85 = landingpad { ptr, i32 }
          cleanup
  %86 = extractvalue { ptr, i32 } %85, 0
  store ptr %86, ptr %5, align 8
  %87 = extractvalue { ptr, i32 } %85, 1
  store i32 %87, ptr %6, align 4
  call void @_ZNSt7__cxx1112basic_stringIcSt11char_traitsIcESaIcEED1Ev(ptr noundef nonnull align 8 dereferenceable(32) %11) #3
  br label %88

88:                                               ; preds = %84, %80
  call void @_ZNSt7__cxx1119basic_ostringstreamIcSt11char_traitsIcESaIcEED1Ev(ptr noundef nonnull align 8 dereferenceable(112) %10) #3
  br label %92

89:                                               ; No predecessors!
  call void @llvm.trap()
  unreachable

90:                                               ; preds = %67, %66, %62, %37, %34
  %91 = load i64, ptr %2, align 8
  ret i64 %91

92:                                               ; preds = %88, %59, %31
  %93 = load ptr, ptr %5, align 8
  %94 = load i32, ptr %6, align 4
  %95 = insertvalue { ptr, i32 } poison, ptr %93, 0
  %96 = insertvalue { ptr, i32 } %95, i32 %94, 1
  resume { ptr, i32 } %96
}