; Function Attrs: mustprogress uwtable
define dso_local noundef i64 @_ZNK4Json5Value8asUInt64Ev(ptr nocapture noundef nonnull readonly align 8 dereferenceable(40) %0) local_unnamed_addr #10 align 2 personality ptr @__gxx_personality_v0 {
  %2 = alloca %"class.std::__cxx11::basic_ostringstream", align 8
  %3 = alloca %"class.std::__cxx11::basic_string", align 8
  %4 = alloca %"class.std::__cxx11::basic_ostringstream", align 8
  %5 = alloca %"class.std::__cxx11::basic_string", align 8
  %6 = alloca %"class.std::__cxx11::basic_ostringstream", align 8
  %7 = alloca %"class.std::__cxx11::basic_string", align 8
  %8 = getelementptr inbounds i8, ptr %0, i64 8
  %9 = load i16, ptr %8, align 8
  %trunc = trunc i16 %9 to i8
  switch i8 %trunc, label %43 [
    i8 1, label %10
    i8 2, label %21
    i8 3, label %23
    i8 0, label %_ZNK4Json5Value8isUInt64Ev.exit.thread15
    i8 5, label %39
  ]

10:                                               ; preds = %1
  %11 = load i64, ptr %0, align 8
  %12 = icmp sgt i64 %11, -1
  br i1 %12, label %_ZNK4Json5Value8isUInt64Ev.exit.thread15, label %_ZNK4Json5Value8isUInt64Ev.exit.thread

_ZNK4Json5Value8isUInt64Ev.exit.thread:           ; preds = %10
  call void @_ZNSt7__cxx1119basic_ostringstreamIcSt11char_traitsIcESaIcEEC1Ev(ptr noundef nonnull align 8 dereferenceable(112) %2)
  %13 = invoke noundef nonnull align 8 dereferenceable(8) ptr @_ZStlsISt11char_traitsIcEERSt13basic_ostreamIcT_ES5_PKc(ptr noundef nonnull align 8 dereferenceable(8) %2, ptr noundef nonnull @.str.21)
          to label %14 unwind label %17

14:                                               ; preds = %_ZNK4Json5Value8isUInt64Ev.exit.thread
  invoke void @_ZNKSt7__cxx1119basic_ostringstreamIcSt11char_traitsIcESaIcEE3strEv(ptr dead_on_unwind nonnull writable sret(%"class.std::__cxx11::basic_string") align 8 %3, ptr noundef nonnull align 8 dereferenceable(112) %2)
          to label %15 unwind label %17

15:                                               ; preds = %14
  invoke void @_ZN4Json15throwLogicErrorERKNSt7__cxx1112basic_stringIcSt11char_traitsIcESaIcEEE(ptr noundef nonnull align 8 dereferenceable(32) %3) #37
          to label %16 unwind label %19

16:                                               ; preds = %15
  unreachable

17:                                               ; preds = %14, %_ZNK4Json5Value8isUInt64Ev.exit.thread
  %18 = landingpad { ptr, i32 }
          cleanup
  br label %52

19:                                               ; preds = %15
  %20 = landingpad { ptr, i32 }
          cleanup
  call void @_ZNSt7__cxx1112basic_stringIcSt11char_traitsIcESaIcEED1Ev(ptr noundef nonnull align 8 dereferenceable(32) %3) #35
  br label %52

21:                                               ; preds = %1
  %22 = load i64, ptr %0, align 8
  br label %_ZNK4Json5Value8isUInt64Ev.exit.thread15

23:                                               ; preds = %1
  %24 = load double, ptr %0, align 8
  %25 = fcmp oge double %24, 0.000000e+00
  %26 = fcmp ole double %24, 0x43F0000000000000
  %27 = and i1 %25, %26
  br i1 %27, label %37, label %28

28:                                               ; preds = %23
  call void @_ZNSt7__cxx1119basic_ostringstreamIcSt11char_traitsIcESaIcEEC1Ev(ptr noundef nonnull align 8 dereferenceable(112) %4)
  %29 = invoke noundef nonnull align 8 dereferenceable(8) ptr @_ZStlsISt11char_traitsIcEERSt13basic_ostreamIcT_ES5_PKc(ptr noundef nonnull align 8 dereferenceable(8) %4, ptr noundef nonnull @.str.22)
          to label %30 unwind label %33

30:                                               ; preds = %28
  invoke void @_ZNKSt7__cxx1119basic_ostringstreamIcSt11char_traitsIcESaIcEE3strEv(ptr dead_on_unwind nonnull writable sret(%"class.std::__cxx11::basic_string") align 8 %5, ptr noundef nonnull align 8 dereferenceable(112) %4)
          to label %31 unwind label %33

31:                                               ; preds = %30
  invoke void @_ZN4Json15throwLogicErrorERKNSt7__cxx1112basic_stringIcSt11char_traitsIcESaIcEEE(ptr noundef nonnull align 8 dereferenceable(32) %5) #37
          to label %32 unwind label %35

32:                                               ; preds = %31
  unreachable

33:                                               ; preds = %30, %28
  %34 = landingpad { ptr, i32 }
          cleanup
  br label %52

35:                                               ; preds = %31
  %36 = landingpad { ptr, i32 }
          cleanup
  call void @_ZNSt7__cxx1112basic_stringIcSt11char_traitsIcESaIcEED1Ev(ptr noundef nonnull align 8 dereferenceable(32) %5) #35
  br label %52

37:                                               ; preds = %23
  %38 = fptoui double %24 to i64
  br label %_ZNK4Json5Value8isUInt64Ev.exit.thread15

39:                                               ; preds = %1
  %40 = load i8, ptr %0, align 8
  %41 = and i8 %40, 1
  %42 = zext nneg i8 %41 to i64
  br label %_ZNK4Json5Value8isUInt64Ev.exit.thread15

43:                                               ; preds = %1
  call void @_ZNSt7__cxx1119basic_ostringstreamIcSt11char_traitsIcESaIcEEC1Ev(ptr noundef nonnull align 8 dereferenceable(112) %6)
  %44 = invoke noundef nonnull align 8 dereferenceable(8) ptr @_ZStlsISt11char_traitsIcEERSt13basic_ostreamIcT_ES5_PKc(ptr noundef nonnull align 8 dereferenceable(8) %6, ptr noundef nonnull @.str.23)
          to label %45 unwind label %48

45:                                               ; preds = %43
  invoke void @_ZNKSt7__cxx1119basic_ostringstreamIcSt11char_traitsIcESaIcEE3strEv(ptr dead_on_unwind nonnull writable sret(%"class.std::__cxx11::basic_string") align 8 %7, ptr noundef nonnull align 8 dereferenceable(112) %6)
          to label %46 unwind label %48

46:                                               ; preds = %45
  invoke void @_ZN4Json15throwLogicErrorERKNSt7__cxx1112basic_stringIcSt11char_traitsIcESaIcEEE(ptr noundef nonnull align 8 dereferenceable(32) %7) #37
          to label %47 unwind label %50

47:                                               ; preds = %46
  unreachable

48:                                               ; preds = %45, %43
  %49 = landingpad { ptr, i32 }
          cleanup
  br label %52

50:                                               ; preds = %46
  %51 = landingpad { ptr, i32 }
          cleanup
  call void @_ZNSt7__cxx1112basic_stringIcSt11char_traitsIcESaIcEED1Ev(ptr noundef nonnull align 8 dereferenceable(32) %7) #35
  br label %52

_ZNK4Json5Value8isUInt64Ev.exit.thread15:         ; preds = %10, %1, %39, %37, %21
  %.07 = phi i64 [ %42, %39 ], [ %38, %37 ], [ %22, %21 ], [ 0, %1 ], [ %11, %10 ]
  ret i64 %.07

52:                                               ; preds = %48, %50, %33, %35, %17, %19
  %.sink = phi ptr [ %2, %19 ], [ %2, %17 ], [ %4, %35 ], [ %4, %33 ], [ %6, %50 ], [ %6, %48 ]
  %.pn11.pn = phi { ptr, i32 } [ %20, %19 ], [ %18, %17 ], [ %36, %35 ], [ %34, %33 ], [ %51, %50 ], [ %49, %48 ]
  call void @_ZNSt7__cxx1119basic_ostringstreamIcSt11char_traitsIcESaIcEED1Ev(ptr noundef nonnull align 8 dereferenceable(112) %.sink) #35
  resume { ptr, i32 } %.pn11.pn
}